; Function Attrs: nounwind uwtable
define ptr @l_Std_DHashMap_Internal_AssocList_getD___at_Lean_Meta_LazyDiscrTree_dropKeyAux___spec__1(ptr noundef %0, ptr noundef %1, ptr noundef %2) local_unnamed_addr #1 {
  br label %lean_inc.exit

lean_inc.exit:                                    ; preds = %22, %3
  %.014 = phi ptr [ %2, %3 ], [ %28, %22 ]
  %4 = ptrtoint ptr %.014 to i64
  %5 = and i64 %4, 1
  %.not.i = icmp eq i64 %5, 0
  br i1 %.not.i, label %9, label %6

6:                                                ; preds = %lean_inc.exit
  %7 = lshr i64 %4, 1
  %8 = trunc i64 %7 to i32
  br label %lean_obj_tag.exit

9:                                                ; preds = %lean_inc.exit
  %10 = getelementptr i8, ptr %.014, i64 4
  %.val.i = load i32, ptr %10, align 4
  %11 = lshr i32 %.val.i, 24
  br label %lean_obj_tag.exit

lean_obj_tag.exit:                                ; preds = %6, %9
  %.0.i = phi i32 [ %8, %6 ], [ %11, %9 ]
  %12 = icmp eq i32 %.0.i, 0
  br i1 %12, label %13, label %22

13:                                               ; preds = %lean_obj_tag.exit
  %14 = ptrtoint ptr %1 to i64
  %15 = and i64 %14, 1
  %.not27 = icmp eq i64 %15, 0
  br i1 %.not27, label %16, label %lean_inc.exit16

16:                                               ; preds = %13
  %.val.i17 = load i32, ptr %1, align 4, !tbaa !8
  %17 = icmp sgt i32 %.val.i17, 0
  br i1 %17, label %18, label %20, !prof !11

18:                                               ; preds = %16
  %19 = add nuw i32 %.val.i17, 1
  store i32 %19, ptr %1, align 4, !tbaa !8
  br label %lean_inc.exit16

20:                                               ; preds = %16
  %.not.i18 = icmp eq i32 %.val.i17, 0
  br i1 %.not.i18, label %lean_inc.exit16, label %21

21:                                               ; preds = %20
  tail call void @lean_inc_ref_cold(ptr noundef nonnull %1) #6
  br label %lean_inc.exit16

22:                                               ; preds = %lean_obj_tag.exit
  %23 = getelementptr inbounds nuw i8, ptr %.014, i64 8
  %24 = load ptr, ptr %23, align 8, !tbaa !4
  %25 = getelementptr inbounds nuw i8, ptr %.014, i64 16
  %26 = load ptr, ptr %25, align 8, !tbaa !4
  %27 = getelementptr inbounds nuw i8, ptr %.014, i64 24
  %28 = load ptr, ptr %27, align 8, !tbaa !4
  %29 = tail call zeroext i8 @l_Lean_Meta_LazyDiscrTree_beqKey____x40_Lean_Meta_LazyDiscrTree___hyg_101_(ptr noundef %24, ptr noundef %0)
  %30 = icmp eq i8 %29, 0
  br i1 %30, label %lean_inc.exit, label %31

31:                                               ; preds = %22
  %32 = ptrtoint ptr %26 to i64
  %33 = and i64 %32, 1
  %.not = icmp eq i64 %33, 0
  br i1 %.not, label %34, label %lean_inc.exit16

34:                                               ; preds = %31
  %.val.i19 = load i32, ptr %26, align 4, !tbaa !8
  %35 = icmp sgt i32 %.val.i19, 0
  br i1 %35, label %36, label %38, !prof !11

36:                                               ; preds = %34
  %37 = add nuw i32 %.val.i19, 1
  store i32 %37, ptr %26, align 4, !tbaa !8
  br label %lean_inc.exit16

38:                                               ; preds = %34
  %.not.i20 = icmp eq i32 %.val.i19, 0
  br i1 %.not.i20, label %lean_inc.exit16, label %39

39:                                               ; preds = %38
  tail call void @lean_inc_ref_cold(ptr noundef nonnull %26) #6
  br label %lean_inc.exit16

lean_inc.exit16:                                  ; preds = %31, %36, %38, %39, %13, %18, %20, %21
  %.1 = phi ptr [ %1, %21 ], [ %1, %20 ], [ %1, %18 ], [ %1, %13 ], [ %26, %39 ], [ %26, %38 ], [ %26, %36 ], [ %26, %31 ]
  ret ptr %.1
}